; Function Attrs: mustprogress uwtable
define hidden noundef zeroext i1 @_ZNK4goal10is_literalEP4expr(ptr noundef nonnull readonly align 8 captures(none) dereferenceable(124) %0, ptr noundef readonly captures(address) %1) local_unnamed_addr #4 align 2 {
  %3 = getelementptr inbounds nuw i8, ptr %1, i64 4
  %4 = load i32, ptr %3, align 4
  %5 = and i32 %4, 65535
  %6 = icmp eq i32 %5, 0
  br i1 %6, label %7, label %_ZNK11ast_manager6is_notEPK4exprRPS0_.exit

7:                                                ; preds = %2
  %8 = getelementptr inbounds nuw i8, ptr %1, i64 16
  %9 = load ptr, ptr %8, align 8, !tbaa !121
  %10 = getelementptr inbounds nuw i8, ptr %9, i64 24
  %11 = load ptr, ptr %10, align 8, !tbaa !126
  %.not.i.i.i.i.i = icmp eq ptr %11, null
  br i1 %.not.i.i.i.i.i, label %_ZNK11ast_manager6is_notEPK4exprRPS0_.exit, label %_ZNK11ast_manager6is_notEPK4expr.exit.i

_ZNK11ast_manager6is_notEPK4expr.exit.i:          ; preds = %7
  %12 = load i32, ptr %11, align 8, !tbaa !129
  %13 = icmp eq i32 %12, 0
  %14 = getelementptr inbounds nuw i8, ptr %11, i64 4
  %15 = load i32, ptr %14, align 4
  %16 = icmp eq i32 %15, 8
  %17 = select i1 %13, i1 %16, i1 false
  br i1 %17, label %18, label %_ZNK11ast_manager6is_notEPK4exprRPS0_.exit

18:                                               ; preds = %_ZNK11ast_manager6is_notEPK4expr.exit.i
  %19 = getelementptr inbounds nuw i8, ptr %1, i64 24
  %20 = load i32, ptr %19, align 8, !tbaa !133
  %21 = icmp eq i32 %20, 1
  br i1 %21, label %22, label %_ZNK11ast_manager6is_notEPK4exprRPS0_.exit

22:                                               ; preds = %18
  %23 = getelementptr inbounds nuw i8, ptr %1, i64 32
  %24 = load ptr, ptr %23, align 8, !tbaa !114
  %.phi.trans.insert = getelementptr inbounds nuw i8, ptr %24, i64 4
  %.pre = load i32, ptr %.phi.trans.insert, align 4
  br label %_ZNK11ast_manager6is_notEPK4exprRPS0_.exit

_ZNK11ast_manager6is_notEPK4exprRPS0_.exit:       ; preds = %2, %7, %_ZNK11ast_manager6is_notEPK4expr.exit.i, %18, %22
  %25 = phi i32 [ %4, %7 ], [ %.pre, %22 ], [ %4, %18 ], [ %4, %_ZNK11ast_manager6is_notEPK4expr.exit.i ], [ %4, %2 ]
  %.015 = phi ptr [ %1, %7 ], [ %24, %22 ], [ %1, %18 ], [ %1, %_ZNK11ast_manager6is_notEPK4expr.exit.i ], [ %1, %2 ]
  %26 = and i32 %25, 65535
  %27 = icmp eq i32 %26, 0
  br i1 %27, label %28, label %_ZNK3app13get_family_idEv.exit.thread

28:                                               ; preds = %_ZNK11ast_manager6is_notEPK4exprRPS0_.exit
  %29 = getelementptr inbounds nuw i8, ptr %.015, i64 16
  %30 = load ptr, ptr %29, align 8, !tbaa !121
  %31 = getelementptr inbounds nuw i8, ptr %30, i64 24
  %32 = load ptr, ptr %31, align 8, !tbaa !126
  %33 = icmp eq ptr %32, null
  br i1 %33, label %_ZNK3app13get_family_idEv.exit.thread, label %_ZNK3app13get_family_idEv.exit

_ZNK3app13get_family_idEv.exit:                   ; preds = %28
  %34 = load i32, ptr %32, align 8, !tbaa !129
  %35 = icmp eq i32 %34, 0
  br i1 %35, label %36, label %_ZNK3app13get_family_idEv.exit.thread

36:                                               ; preds = %_ZNK3app13get_family_idEv.exit
  %37 = getelementptr inbounds nuw i8, ptr %.015, i64 24
  %38 = load i32, ptr %37, align 8, !tbaa !133
  %39 = zext i32 %38 to i64
  %.idx = shl nuw nsw i64 %39, 3
  %40 = getelementptr inbounds nuw i8, ptr %.015, i64 %.idx
  %.ptr23 = getelementptr inbounds nuw i8, ptr %40, i64 32
  %.not19 = icmp eq i32 %38, 0
  br i1 %.not19, label %_ZNK3app13get_family_idEv.exit.thread, label %.lr.ph.preheader

.lr.ph.preheader:                                 ; preds = %36
  %.ptr = getelementptr inbounds nuw i8, ptr %.015, i64 32
  br label %.lr.ph

.lr.ph:                                           ; preds = %.lr.ph, %.lr.ph.preheader
  %.01220 = phi ptr [ %.ptr, %.lr.ph.preheader ], [ %44, %.lr.ph ]
  %41 = load ptr, ptr %.01220, align 8, !tbaa !114
  %42 = load ptr, ptr %0, align 8, !tbaa !102
  %43 = tail call noundef zeroext i1 @_ZNK11ast_manager7is_boolEPK4expr(ptr noundef nonnull align 8 dereferenceable(976) %42, ptr noundef %41)
  %44 = getelementptr inbounds nuw i8, ptr %.01220, i64 8
  %.not = icmp eq ptr %44, %.ptr23
  %or.cond = select i1 %43, i1 true, i1 %.not
  br i1 %or.cond, label %_ZNK3app13get_family_idEv.exit.thread.loopexit, label %.lr.ph

_ZNK3app13get_family_idEv.exit.thread.loopexit:   ; preds = %.lr.ph
  %.0.ph = xor i1 %43, true
  br label %_ZNK3app13get_family_idEv.exit.thread

_ZNK3app13get_family_idEv.exit.thread:            ; preds = %_ZNK3app13get_family_idEv.exit.thread.loopexit, %36, %28, %_ZNK3app13get_family_idEv.exit, %_ZNK11ast_manager6is_notEPK4exprRPS0_.exit
  %.0 = phi i1 [ false, %_ZNK11ast_manager6is_notEPK4exprRPS0_.exit ], [ true, %_ZNK3app13get_family_idEv.exit ], [ true, %28 ], [ true, %36 ], [ %.0.ph, %_ZNK3app13get_family_idEv.exit.thread.loopexit ]
  ret i1 %.0
}